target datalayout = "e-m:e-p270:32:32-p271:32:32-p272:64:64-i64:64-i128:128-f80:128-n8:16:32:64-S128"
target triple = "x86_64-pc-linux-gnu"

%"class.igl::Frame_field_deformer" = type { %"class.Eigen::Matrix", %"class.Eigen::Matrix.3", %"class.std::vector", %"class.std::vector", %"class.Eigen::Matrix", %"class.std::vector.12", %"class.std::vector.17", %"class.std::vector.12", i32, double, i32, i32, %"class.Eigen::Matrix", %"class.Eigen::SparseMatrix", %"class.Eigen::SparseMatrix", %"class.Eigen::Matrix", %"class.std::vector.17", %"class.Eigen::SimplicialCholesky", double }
%"class.Eigen::Matrix.3" = type { %"class.Eigen::PlainObjectBase.4" }
%"class.Eigen::PlainObjectBase.4" = type { %"class.Eigen::DenseStorage.11" }
%"class.Eigen::DenseStorage.11" = type { ptr, i64, i64 }
%"class.std::vector" = type { %"struct.std::_Vector_base" }
%"struct.std::_Vector_base" = type { %"struct.std::_Vector_base<std::vector<int>, std::allocator<std::vector<int>>>::_Vector_impl" }
%"struct.std::_Vector_base<std::vector<int>, std::allocator<std::vector<int>>>::_Vector_impl" = type { %"struct.std::_Vector_base<std::vector<int>, std::allocator<std::vector<int>>>::_Vector_impl_data" }
%"struct.std::_Vector_base<std::vector<int>, std::allocator<std::vector<int>>>::_Vector_impl_data" = type { ptr, ptr, ptr }
%"class.std::vector.12" = type { %"struct.std::_Vector_base.13" }
%"struct.std::_Vector_base.13" = type { %"struct.std::_Vector_base<Eigen::Matrix<double, 3, 2>, std::allocator<Eigen::Matrix<double, 3, 2>>>::_Vector_impl" }
%"struct.std::_Vector_base<Eigen::Matrix<double, 3, 2>, std::allocator<Eigen::Matrix<double, 3, 2>>>::_Vector_impl" = type { %"struct.std::_Vector_base<Eigen::Matrix<double, 3, 2>, std::allocator<Eigen::Matrix<double, 3, 2>>>::_Vector_impl_data" }
%"struct.std::_Vector_base<Eigen::Matrix<double, 3, 2>, std::allocator<Eigen::Matrix<double, 3, 2>>>::_Vector_impl_data" = type { ptr, ptr, ptr }
%"class.Eigen::SparseMatrix" = type { %"class.Eigen::SparseCompressedBase", i64, i64, ptr, ptr, %"class.Eigen::internal::CompressedStorage" }
%"class.Eigen::SparseCompressedBase" = type { %"class.Eigen::SparseMatrixBase" }
%"class.Eigen::SparseMatrixBase" = type { i8 }
%"class.Eigen::internal::CompressedStorage" = type { ptr, ptr, i64, i64 }
%"class.Eigen::Matrix" = type { %"class.Eigen::PlainObjectBase" }
%"class.Eigen::PlainObjectBase" = type { %"class.Eigen::DenseStorage" }
%"class.Eigen::DenseStorage" = type { ptr, i64, i64 }
%"class.std::vector.17" = type { %"struct.std::_Vector_base.18" }
%"struct.std::_Vector_base.18" = type { %"struct.std::_Vector_base<Eigen::Matrix<double, 3, 3>, std::allocator<Eigen::Matrix<double, 3, 3>>>::_Vector_impl" }
%"struct.std::_Vector_base<Eigen::Matrix<double, 3, 3>, std::allocator<Eigen::Matrix<double, 3, 3>>>::_Vector_impl" = type { %"struct.std::_Vector_base<Eigen::Matrix<double, 3, 3>, std::allocator<Eigen::Matrix<double, 3, 3>>>::_Vector_impl_data" }
%"struct.std::_Vector_base<Eigen::Matrix<double, 3, 3>, std::allocator<Eigen::Matrix<double, 3, 3>>>::_Vector_impl_data" = type { ptr, ptr, ptr }
%"class.Eigen::SimplicialCholesky" = type <{ %"class.Eigen::SimplicialCholeskyBase", i8, [7 x i8] }>
%"class.Eigen::SimplicialCholeskyBase" = type { %"class.Eigen::SparseSolverBase", i32, i8, i8, %"class.Eigen::SparseMatrix", %"class.Eigen::Matrix.23", %"class.Eigen::Matrix.32", %"class.Eigen::Matrix.32", %"class.Eigen::PermutationMatrix", %"class.Eigen::PermutationMatrix", double, double }
%"class.Eigen::SparseSolverBase" = type { i8 }
%"class.Eigen::Matrix.23" = type { %"class.Eigen::PlainObjectBase.24" }
%"class.Eigen::PlainObjectBase.24" = type { %"class.Eigen::DenseStorage.31" }
%"class.Eigen::DenseStorage.31" = type { ptr, i64 }
%"class.Eigen::Matrix.32" = type { %"class.Eigen::PlainObjectBase.33" }
%"class.Eigen::PlainObjectBase.33" = type { %"class.Eigen::DenseStorage.40" }
%"class.Eigen::DenseStorage.40" = type { ptr, i64 }
%"class.Eigen::PermutationMatrix" = type { %"class.Eigen::Matrix.32" }

; Function Attrs: mustprogress uwtable
define dso_local void @_ZN3igl20Frame_field_deformer8optimizeEib(ptr noundef nonnull align 8 dereferenceable(632) %0, i32 noundef %1, i1 noundef zeroext %2) #3 align 2 {
  %4 = alloca ptr, align 8
  %5 = alloca i32, align 4
  %6 = alloca i8, align 1
  %7 = alloca i32, align 4
  store ptr %0, ptr %4, align 8, !tbaa !15
  store i32 %1, ptr %5, align 4, !tbaa !93
  %8 = zext i1 %2 to i8
  store i8 %8, ptr %6, align 1, !tbaa !115
  %9 = load ptr, ptr %4, align 8
  %10 = load i8, ptr %6, align 1, !tbaa !115, !range !116, !noundef !117
  %11 = trunc i8 %10 to i1
  br i1 %11, label %12, label %13

12:                                               ; preds = %3
  call void @_ZN3igl20Frame_field_deformer9reset_optEv(ptr noundef nonnull align 8 dereferenceable(632) %9)
  br label %13

13:                                               ; preds = %12, %3
  call void @llvm.lifetime.start.p0(i64 4, ptr %7) #27
  store i32 0, ptr %7, align 4, !tbaa !93
  br label %14

14:                                               ; preds = %21, %13
  %15 = load i32, ptr %7, align 4, !tbaa !93
  %16 = load i32, ptr %5, align 4, !tbaa !93
  %17 = icmp slt i32 %15, %16
  br i1 %17, label %19, label %18

18:                                               ; preds = %14
  call void @llvm.lifetime.end.p0(i64 4, ptr %7) #27
  br label %24

19:                                               ; preds = %14
  call void @_ZN3igl20Frame_field_deformer25compute_optimal_rotationsEv(ptr noundef nonnull align 8 dereferenceable(632) %9)
  call void @_ZN3igl20Frame_field_deformer25compute_optimal_positionsEv(ptr noundef nonnull align 8 dereferenceable(632) %9)
  %20 = getelementptr inbounds nuw %"class.igl::Frame_field_deformer", ptr %9, i32 0, i32 7
  call void @_ZN3igl20Frame_field_deformer13computeXFieldERSt6vectorIN5Eigen6MatrixIdLi3ELi2ELi0ELi3ELi2EEESaIS4_EE(ptr noundef nonnull align 8 dereferenceable(632) %9, ptr noundef nonnull align 8 dereferenceable(24) %20)
  br label %21

21:                                               ; preds = %19
  %22 = load i32, ptr %7, align 4, !tbaa !93
  %23 = add nsw i32 %22, 1
  store i32 %23, ptr %7, align 4, !tbaa !93
  br label %14, !llvm.loop !118

24:                                               ; preds = %18
  ret void
}