; Function Attrs: mustprogress uwtable
define dso_local void @_ZN3igl20Frame_field_deformer8optimizeEib(ptr noundef nonnull align 8 dereferenceable(632) %0, i32 noundef %1, i1 noundef zeroext %2) local_unnamed_addr #0 align 2 {
  br i1 %2, label %4, label %5

4:                                                ; preds = %3
  tail call void @_ZN3igl20Frame_field_deformer9reset_optEv(ptr noundef nonnull align 8 dereferenceable(632) %0)
  br label %5

5:                                                ; preds = %4, %3
  %6 = icmp sgt i32 %1, 0
  br i1 %6, label %.lr.ph, label %._crit_edge

.lr.ph:                                           ; preds = %5
  %7 = getelementptr inbounds nuw i8, ptr %0, i64 168
  br label %8

._crit_edge:                                      ; preds = %8, %5
  ret void

8:                                                ; preds = %.lr.ph, %8
  %.04 = phi i32 [ 0, %.lr.ph ], [ %9, %8 ]
  tail call void @_ZN3igl20Frame_field_deformer25compute_optimal_rotationsEv(ptr noundef nonnull align 8 dereferenceable(632) %0)
  tail call void @_ZN3igl20Frame_field_deformer25compute_optimal_positionsEv(ptr noundef nonnull align 8 dereferenceable(632) %0)
  tail call void @_ZN3igl20Frame_field_deformer13computeXFieldERSt6vectorIN5Eigen6MatrixIdLi3ELi2ELi0ELi3ELi2EEESaIS4_EE(ptr noundef nonnull align 8 dereferenceable(632) %0, ptr noundef nonnull align 8 dereferenceable(24) %7)
  %9 = add nuw nsw i32 %.04, 1
  %exitcond.not = icmp eq i32 %9, %1
  br i1 %exitcond.not, label %._crit_edge, label %8, !llvm.loop !134
}